(dp0
S'METTS MARK'
p1
(dp2
S'salary'
p3
F365788.0
sS'to_messages'
p4
F807.0
sS'shared_ratio'
p5
F0.8698884758364313
sS'lti_ratio'
p6
F0.0
sS'total_payments'
p7
F1061827.0
sS'long_term_incentive'
p8
F0.0
sS'bonus'
p9
F600000.0
sS'bonus_to_salary_ratio'
p10
F1.6402943781644013
sS'total_stock_value'
p11
F585062.0
sS'expenses'
p12
F94299.0
sS'exercised_stock_options'
p13
F0.0
sS'from_messages'
p14
F29.0
sS'other'
p15
F1740.0
sS'from_this_person_to_poi'
p16
F1.0
sS'poi'
p17
I00
sS'deferred_income'
p18
F0.0
sS'shared_receipt_with_poi'
p19
F702.0
sS'restricted_stock'
p20
F585062.0
sS'from_poi_to_this_person'
p21
F38.0
ssS'BAXTER JOHN C'
p22
(dp23
g3
F267102.0
sg4
F0.0
sg5
F0.0
sg6
F0.2814977717898964
sg7
F5634343.0
sg8
F1586055.0
sg9
F1200000.0
sg10
F4.492665723206865
sg11
F10623258.0
sg12
F11200.0
sg13
F6680544.0
sg14
F0.0
sg15
F2660303.0
sg16
F0.0
sg17
I00
sg18
F-1386055.0
sg19
F0.0
sg20
F3942714.0
sg21
F0.0
ssS'ELLIOTT STEVEN'
p24
(dp25
g3
F170941.0
sg4
F0.0
sg5
F0.0
sg6
F0.0
sg7
F211725.0
sg8
F0.0
sg9
F350000.0
sg10
F2.047490069673162
sg11
F6678735.0
sg12
F78552.0
sg13
F4890344.0
sg14
F0.0
sg15
F12961.0
sg16
F0.0
sg17
I00
sg18
F-400729.0
sg19
F0.0
sg20
F1788391.0
sg21
F0.0
ssS'CORDES WILLIAM R'
p26
(dp27
g3
F0.0
sg4
F764.0
sg5
F0.07591623036649214
sg6
F0.0
sg7
F0.0
sg8
F0.0
sg9
F0.0
sg10
F0.0
sg11
F1038185.0
sg12
F0.0
sg13
F651850.0
sg14
F12.0
sg15
F0.0
sg16
F0.0
sg17
I00
sg18
F0.0
sg19
F58.0
sg20
F386335.0
sg21
F10.0
ssS'HANNON KEVIN P'
p28
(dp29
g3
F243293.0
sg4
F1045.0
sg5
F0.9904306220095693
sg6
F5.60135720273519
sg7
F288682.0
sg8
F1617011.0
sg9
F1500000.0
sg10
F6.165405498719651
sg11
F6391065.0
sg12
F34039.0
sg13
F5538001.0
sg14
F32.0
sg15
F11350.0
sg16
F21.0
sg17
I01
sg18
F-3117011.0
sg19
F1035.0
sg20
F853064.0
sg21
F32.0
ssS'MORDAUNT KRISTINA M'
p30
(dp31
g3
F267093.0
sg4
F0.0
sg5
F0.0
sg6
F0.0
sg7
F628522.0
sg8
F0.0
sg9
F325000.0
sg10
F1.2168046335920448
sg11
F208510.0
sg12
F35018.0
sg13
F0.0
sg14
F0.0
sg15
F1411.0
sg16
F0.0
sg17
I00
sg18
F0.0
sg19
F0.0
sg20
F208510.0
sg21
F0.0
ssS'MEYER ROCKFORD G'
p32
(dp33
g3
F0.0
sg4
F232.0
sg5
F0.09482758620689655
sg6
F0.0
sg7
F1848227.0
sg8
F0.0
sg9
F0.0
sg10
F0.0
sg11
F955873.0
sg12
F0.0
sg13
F493489.0
sg14
F28.0
sg15
F0.0
sg16
F0.0
sg17
I00
sg18
F0.0
sg19
F22.0
sg20
F462384.0
sg21
F0.0
ssS'MCMAHON JEFFREY'
p34
(dp35
g3
F370448.0
sg4
F2355.0
sg5
F0.9460721868365181
sg6
F0.16948800311041762
sg7
F4099771.0
sg8
F694862.0
sg9
F2600000.0
sg10
F7.018528916339135
sg11
F1662855.0
sg12
F137108.0
sg13
F1104054.0
sg14
F48.0
sg15
F297353.0
sg16
F26.0
sg17
I00
sg18
F0.0
sg19
F2228.0
sg20
F558801.0
sg21
F58.0
ssS'HAEDICKE MARK E'
p36
(dp37
g3
F374125.0
sg4
F4009.0
sg5
F0.4607133948615615
sg6
F0.25481457296003046
sg7
F3859065.0
sg8
F983346.0
sg9
F1150000.0
sg10
F3.073838957567658
sg11
F803094.0
sg12
F76169.0
sg13
F608750.0
sg14
F1941.0
sg15
F52382.0
sg16
F61.0
sg17
I00
sg18
F-934484.0
sg19
F1847.0
sg20
F524169.0
sg21
F180.0
ssS'PIPER GREGORY F'
p38
(dp39
g3
F197091.0
sg4
F1238.0
sg5
F0.5993537964458805
sg6
F0.0
sg7
F1737629.0
sg8
F0.0
sg9
F400000.0
sg10
F2.0295193590777862
sg11
F880290.0
sg12
F43057.0
sg13
F880290.0
sg14
F222.0
sg15
F778.0
sg16
F48.0
sg17
I00
sg18
F-33333.0
sg19
F742.0
sg20
F409554.0
sg21
F61.0
ssS'HUMPHREY GENE E'
p40
(dp41
g3
F130724.0
sg4
F128.0
sg5
F0.9296875
sg6
F0.0
sg7
F3100224.0
sg8
F0.0
sg9
F0.0
sg10
F0.0
sg11
F2282768.0
sg12
F4994.0
sg13
F2282768.0
sg14
F17.0
sg15
F0.0
sg16
F17.0
sg17
I00
sg18
F0.0
sg19
F119.0
sg20
F0.0
sg21
F10.0
ssS'NOLES JAMES L'
p42
(dp43
g3
F0.0
sg4
F0.0
sg5
F0.0
sg6
F0.0
sg7
F774401.0
sg8
F0.0
sg9
F0.0
sg10
F0.0
sg11
F368705.0
sg12
F0.0
sg13
F0.0
sg14
F0.0
sg15
F0.0
sg16
F0.0
sg17
I00
sg18
F0.0
sg19
F0.0
sg20
F463261.0
sg21
F0.0
ssS'BLACHMAN JEREMY M'
p44
(dp45
g3
F248546.0
sg4
F2475.0
sg5
F0.9397979797979797
sg6
F0.4128422426650321
sg7
F2014835.0
sg8
F831809.0
sg9
F850000.0
sg10
F3.419890080709406
sg11
F954354.0
sg12
F84208.0
sg13
F765313.0
sg14
F14.0
sg15
F272.0
sg16
F2.0
sg17
I00
sg18
F0.0
sg19
F2326.0
sg20
F189041.0
sg21
F25.0
ssS'SUNDE MARTIN'
p46
(dp47
g3
F257486.0
sg4
F2647.0
sg5
F0.9690215338118625
sg6
F0.30837074830152117
sg7
F1545059.0
sg8
F476451.0
sg9
F700000.0
sg10
F2.7185944090164127
sg11
F698920.0
sg12
F0.0
sg13
F0.0
sg14
F38.0
sg15
F111122.0
sg16
F13.0
sg17
I00
sg18
F0.0
sg19
F2565.0
sg20
F698920.0
sg21
F37.0
ssS'GIBBS DANA R'
p48
(dp49
g3
F0.0
sg4
F169.0
sg5
F0.13609467455621302
sg6
F0.47791152193121317
sg7
F966522.0
sg8
F461912.0
sg9
F0.0
sg10
F0.0
sg11
F2218275.0
sg12
F0.0
sg13
F2218275.0
sg14
F12.0
sg15
F0.0
sg16
F0.0
sg17
I00
sg18
F0.0
sg19
F23.0
sg20
F0.0
sg21
F0.0
ssS'LOWRY CHARLES P'
p50
(dp51
g3
F0.0
sg4
F0.0
sg5
F0.0
sg6
F0.0
sg7
F0.0
sg8
F0.0
sg9
F0.0
sg10
F0.0
sg11
F372205.0
sg12
F0.0
sg13
F372205.0
sg14
F0.0
sg15
F0.0
sg16
F0.0
sg17
I00
sg18
F0.0
sg19
F0.0
sg20
F153686.0
sg21
F0.0
ssS'COLWELL WESLEY'
p52
(dp53
g3
F288542.0
sg4
F1758.0
sg5
F0.6439135381114903
sg6
F0.0
sg7
F1490344.0
sg8
F0.0
sg9
F1200000.0
sg10
F4.158839960906905
sg11
F698242.0
sg12
F16514.0
sg13
F0.0
sg14
F40.0
sg15
F101740.0
sg16
F11.0
sg17
I01
sg18
F-144062.0
sg19
F1132.0
sg20
F698242.0
sg21
F240.0
ssS'MULLER MARK S'
p54
(dp55
g3
F251654.0
sg4
F136.0
sg5
F0.8382352941176471
sg6
F0.5388842217690432
sg7
F3202070.0
sg8
F1725545.0
sg9
F1100000.0
sg10
F4.3710809285765375
sg11
F1416848.0
sg12
F0.0
sg13
F1056320.0
sg14
F16.0
sg15
F947.0
sg16
F0.0
sg17
I00
sg18
F-719000.0
sg19
F114.0
sg20
F360528.0
sg21
F12.0
ssS'JACKSON CHARLENE R'
p56
(dp57
g3
F288558.0
sg4
F258.0
sg5
F0.45348837209302323
sg6
F0.0
sg7
F551174.0
sg8
F0.0
sg9
F250000.0
sg10
F0.8663769502145149
sg11
F725735.0
sg12
F10181.0
sg13
F185063.0
sg14
F56.0
sg15
F2435.0
sg16
F19.0
sg17
I00
sg18
F0.0
sg19
F117.0
sg20
F540672.0
sg21
F25.0
ssS'WESTFAHL RICHARD K'
p58
(dp59
g3
F63744.0
sg4
F0.0
sg5
F0.0
sg6
F0.336149107441595
sg7
F762135.0
sg8
F256191.0
sg9
F0.0
sg10
F0.0
sg11
F384930.0
sg12
F51870.0
sg13
F0.0
sg14
F0.0
sg15
F401130.0
sg16
F0.0
sg17
I00
sg18
F-10800.0
sg19
F0.0
sg20
F384930.0
sg21
F0.0
ssS'WALTERS GARETH W'
p60
(dp61
g3
F0.0
sg4
F0.0
sg5
F0.0
sg6
F0.0
sg7
F87410.0
sg8
F0.0
sg9
F0.0
sg10
F0.0
sg11
F1030329.0
sg12
F33785.0
sg13
F1030329.0
sg14
F0.0
sg15
F0.0
sg16
F0.0
sg17
I00
sg18
F0.0
sg19
F0.0
sg20
F0.0
sg21
F0.0
ssS'WALLS JR ROBERT H'
p62
(dp63
g3
F357091.0
sg4
F671.0
sg5
F0.3204172876304024
sg6
F0.30062097643958685
sg7
F1798780.0
sg8
F540751.0
sg9
F850000.0
sg10
F2.380345626184922
sg11
F5898997.0
sg12
F50936.0
sg13
F4346544.0
sg14
F146.0
sg15
F2.0
sg16
F0.0
sg17
I00
sg18
F0.0
sg19
F215.0
sg20
F1552453.0
sg21
F17.0
ssS'KITCHEN LOUISE'
p64
(dp65
g3
F271442.0
sg4
F8305.0
sg5
F0.441782059000602
sg6
F0.0
sg7
F3471141.0
sg8
F0.0
sg9
F3100000.0
sg10
F11.420487617981005
sg11
F547143.0
sg12
F5774.0
sg13
F81042.0
sg14
F1728.0
sg15
F93925.0
sg16
F194.0
sg17
I00
sg18
F0.0
sg19
F3669.0
sg20
F466101.0
sg21
F251.0
ssS'CHAN RONNIE'
p66
(dp67
g3
F0.0
sg4
F0.0
sg5
F0.0
sg6
F0.0
sg7
F0.0
sg8
F0.0
sg9
F0.0
sg10
F0.0
sg11
F0.0
sg12
F0.0
sg13
F0.0
sg14
F0.0
sg15
F0.0
sg16
F0.0
sg17
I00
sg18
F-98784.0
sg19
F0.0
sg20
F32460.0
sg21
F0.0
ssS'BELFER ROBERT'
p68
(dp69
g3
F0.0
sg4
F0.0
sg5
F0.0
sg6
F0.0
sg7
F102500.0
sg8
F0.0
sg9
F0.0
sg10
F0.0
sg11
F-44093.0
sg12
F0.0
sg13
F3285.0
sg14
F0.0
sg15
F0.0
sg16
F0.0
sg17
I00
sg18
F0.0
sg19
F0.0
sg20
F0.0
sg21
F0.0
ssS'SHANKMAN JEFFREY A'
p70
(dp71
g3
F304110.0
sg4
F3221.0
sg5
F0.5371002794163303
sg6
F0.18245356076377348
sg7
F3038702.0
sg8
F554422.0
sg9
F2000000.0
sg10
F6.576567689322943
sg11
F2072035.0
sg12
F178979.0
sg13
F1441898.0
sg14
F2681.0
sg15
F1191.0
sg16
F83.0
sg17
I00
sg18
F0.0
sg19
F1730.0
sg20
F630137.0
sg21
F94.0
ssS'WODRASKA JOHN'
p72
(dp73
g3
F0.0
sg4
F0.0
sg5
F0.0
sg6
F0.0
sg7
F189583.0
sg8
F0.0
sg9
F0.0
sg10
F0.0
sg11
F0.0
sg12
F0.0
sg13
F0.0
sg14
F0.0
sg15
F189583.0
sg16
F0.0
sg17
I00
sg18
F0.0
sg19
F0.0
sg20
F0.0
sg21
F0.0
ssS'BERGSIEKER RICHARD P'
p74
(dp75
g3
F187922.0
sg4
F383.0
sg5
F0.608355091383812
sg6
F0.29126605801082656
sg7
F618850.0
sg8
F180250.0
sg9
F250000.0
sg10
F1.3303391832781686
sg11
F659249.0
sg12
F59175.0
sg13
F0.0
sg14
F59.0
sg15
F427316.0
sg16
F0.0
sg17
I00
sg18
F-485813.0
sg19
F233.0
sg20
F659249.0
sg21
F4.0
ssS'URQUHART JOHN A'
p76
(dp77
g3
F0.0
sg4
F0.0
sg5
F0.0
sg6
F0.0
sg7
F228656.0
sg8
F0.0
sg9
F0.0
sg10
F0.0
sg11
F0.0
sg12
F228656.0
sg13
F0.0
sg14
F0.0
sg15
F0.0
sg16
F0.0
sg17
I00
sg18
F-36666.0
sg19
F0.0
sg20
F0.0
sg21
F0.0
ssS'BIBI PHILIPPE A'
p78
(dp79
g3
F213625.0
sg4
F1607.0
sg5
F0.8313627878033603
sg6
F0.18056371554307912
sg7
F2047593.0
sg8
F369721.0
sg9
F1000000.0
sg10
F4.681100058513751
sg11
F1843816.0
sg12
F38559.0
sg13
F1465734.0
sg14
F40.0
sg15
F425688.0
sg16
F8.0
sg17
I00
sg18
F0.0
sg19
F1336.0
sg20
F378082.0
sg21
F23.0
ssS'RIEKER PAULA H'
p80
(dp81
g3
F249201.0
sg4
F1328.0
sg5
F0.947289156626506
sg6
F0.0
sg7
F1099100.0
sg8
F0.0
sg9
F700000.0
sg10
F2.8089774920646384
sg11
F1918887.0
sg12
F33271.0
sg13
F1635238.0
sg14
F82.0
sg15
F1950.0
sg16
F48.0
sg17
I01
sg18
F-100000.0
sg19
F1258.0
sg20
F283649.0
sg21
F35.0
ssS'WHALEY DAVID A'
p82
(dp83
g3
F0.0
sg4
F0.0
sg5
F0.0
sg6
F0.0
sg7
F0.0
sg8
F0.0
sg9
F0.0
sg10
F0.0
sg11
F98718.0
sg12
F0.0
sg13
F98718.0
sg14
F0.0
sg15
F0.0
sg16
F0.0
sg17
I00
sg18
F0.0
sg19
F0.0
sg20
F0.0
sg21
F0.0
ssS'BECK SALLY W'
p84
(dp85
g3
F231330.0
sg4
F7315.0
sg5
F0.36076555023923446
sg6
F0.0
sg7
F969068.0
sg8
F0.0
sg9
F700000.0
sg10
F3.025980201443825
sg11
F126027.0
sg12
F37172.0
sg13
F0.0
sg14
F4343.0
sg15
F566.0
sg16
F386.0
sg17
I00
sg18
F0.0
sg19
F2639.0
sg20
F126027.0
sg21
F144.0
ssS'HAUG DAVID L'
p86
(dp87
g3
F0.0
sg4
F573.0
sg5
F0.8219895287958116
sg6
F0.0
sg7
F475.0
sg8
F0.0
sg9
F0.0
sg10
F0.0
sg11
F2217299.0
sg12
F475.0
sg13
F0.0
sg14
F19.0
sg15
F0.0
sg16
F7.0
sg17
I00
sg18
F0.0
sg19
F471.0
sg20
F2217299.0
sg21
F4.0
ssS'ECHOLS JOHN B'
p88
(dp89
g3
F182245.0
sg4
F0.0
sg5
F0.0
sg6
F0.8300538865307444
sg7
F2692324.0
sg8
F2234774.0
sg9
F200000.0
sg10
F1.0974237976350518
sg11
F1008941.0
sg12
F21530.0
sg13
F601438.0
sg14
F0.0
sg15
F53775.0
sg16
F0.0
sg17
I00
sg18
F0.0
sg19
F0.0
sg20
F407503.0
sg21
F0.0
ssS'MENDELSOHN JOHN'
p90
(dp91
g3
F0.0
sg4
F0.0
sg5
F0.0
sg6
F0.0
sg7
F148.0
sg8
F0.0
sg9
F0.0
sg10
F0.0
sg11
F0.0
sg12
F148.0
sg13
F0.0
sg14
F0.0
sg15
F0.0
sg16
F0.0
sg17
I00
sg18
F-103750.0
sg19
F0.0
sg20
F0.0
sg21
F0.0
ssS'HICKERSON GARY J'
p92
(dp93
g3
F211788.0
sg4
F1320.0
sg5
F0.6818181818181818
sg6
F0.03325157700370257
sg7
F2081796.0
sg8
F69223.0
sg9
F1700000.0
sg10
F8.02689481934765
sg11
F441096.0
sg12
F98849.0
sg13
F0.0
sg14
F27.0
sg15
F1936.0
sg16
F1.0
sg17
I00
sg18
F0.0
sg19
F900.0
sg20
F441096.0
sg21
F40.0
ssS'CLINE KENNETH W'
p94
(dp95
g3
F0.0
sg4
F0.0
sg5
F0.0
sg6
F0.0
sg7
F0.0
sg8
F0.0
sg9
F0.0
sg10
F0.0
sg11
F189518.0
sg12
F0.0
sg13
F0.0
sg14
F0.0
sg15
F0.0
sg16
F0.0
sg17
I00
sg18
F0.0
sg19
F0.0
sg20
F662086.0
sg21
F0.0
ssS'LEWIS RICHARD'
p96
(dp97
g3
F0.0
sg4
F952.0
sg5
F0.7762605042016807
sg6
F0.0
sg7
F0.0
sg8
F0.0
sg9
F0.0
sg10
F0.0
sg11
F850477.0
sg12
F0.0
sg13
F850477.0
sg14
F26.0
sg15
F0.0
sg16
F0.0
sg17
I00
sg18
F0.0
sg19
F739.0
sg20
F0.0
sg21
F10.0
ssS'HAYES ROBERT E'
p98
(dp99
g3
F0.0
sg4
F504.0
sg5
F0.0992063492063492
sg6
F0.0
sg7
F7961.0
sg8
F0.0
sg9
F0.0
sg10
F0.0
sg11
F151418.0
sg12
F0.0
sg13
F0.0
sg14
F12.0
sg15
F0.0
sg16
F0.0
sg17
I00
sg18
F0.0
sg19
F50.0
sg20
F151418.0
sg21
F16.0
ssS'KOPPER MICHAEL J'
p100
(dp101
g3
F224305.0
sg4
F0.0
sg5
F0.0
sg6
F0.22719907773922457
sg7
F2652612.0
sg8
F602671.0
sg9
F800000.0
sg10
F3.5665723011078665
sg11
F985032.0
sg12
F118134.0
sg13
F0.0
sg14
F0.0
sg15
F907502.0
sg16
F0.0
sg17
I01
sg18
F0.0
sg19
F0.0
sg20
F985032.0
sg21
F0.0
ssS'LEFF DANIEL P'
p102
(dp103
g3
F273746.0
sg4
F2822.0
sg5
F0.9468462083628633
sg6
F0.5207508516538374
sg7
F2664228.0
sg8
F1387399.0
sg9
F1000000.0
sg10
F3.653021414011529
sg11
F360528.0
sg12
F0.0
sg13
F0.0
sg14
F63.0
sg15
F3083.0
sg16
F14.0
sg17
I00
sg18
F0.0
sg19
F2672.0
sg20
F360528.0
sg21
F67.0
ssS'LAVORATO JOHN J'
p104
(dp105
g3
F339288.0
sg4
F7259.0
sg5
F0.5458052073288332
sg6
F0.19522611163870404
sg7
F10425757.0
sg8
F2035380.0
sg9
F8000000.0
sg10
F23.57878852184575
sg11
F5167144.0
sg12
F49537.0
sg13
F4158995.0
sg14
F2585.0
sg15
F1552.0
sg16
F411.0
sg17
I00
sg18
F0.0
sg19
F3962.0
sg20
F1008149.0
sg21
F528.0
ssS'BERBERIAN DAVID'
p106
(dp107
g3
F216582.0
sg4
F0.0
sg5
F0.0
sg6
F0.0
sg7
F228474.0
sg8
F0.0
sg9
F0.0
sg10
F0.0
sg11
F2493616.0
sg12
F11892.0
sg13
F1624396.0
sg14
F0.0
sg15
F0.0
sg16
F0.0
sg17
I00
sg18
F0.0
sg19
F0.0
sg20
F869220.0
sg21
F0.0
ssS'DETMERING TIMOTHY J'
p108
(dp109
g3
F210500.0
sg4
F0.0
sg5
F0.0
sg6
F0.34506298030106686
sg7
F1204583.0
sg8
F415657.0
sg9
F425000.0
sg10
F2.019002375296912
sg11
F2027865.0
sg12
F52255.0
sg13
F2027865.0
sg14
F0.0
sg15
F1105.0
sg16
F0.0
sg17
I00
sg18
F-775241.0
sg19
F0.0
sg20
F315068.0
sg21
F0.0
ssS'WAKEHAM JOHN'
p110
(dp111
g3
F0.0
sg4
F0.0
sg5
F0.0
sg6
F0.0
sg7
F213071.0
sg8
F0.0
sg9
F0.0
sg10
F0.0
sg11
F0.0
sg12
F103773.0
sg13
F0.0
sg14
F0.0
sg15
F0.0
sg16
F0.0
sg17
I00
sg18
F0.0
sg19
F0.0
sg20
F0.0
sg21
F0.0
ssS'POWERS WILLIAM'
p112
(dp113
g3
F0.0
sg4
F653.0
sg5
F0.018376722817764167
sg6
F0.0
sg7
F0.0
sg8
F0.0
sg9
F0.0
sg10
F0.0
sg11
F0.0
sg12
F0.0
sg13
F0.0
sg14
F26.0
sg15
F0.0
sg16
F0.0
sg17
I00
sg18
F-17500.0
sg19
F12.0
sg20
F0.0
sg21
F0.0
ssS'GOLD JOSEPH'
p114
(dp115
g3
F272880.0
sg4
F0.0
sg5
F0.0
sg6
F0.1419696474990603
sg7
F2146973.0
sg8
F304805.0
sg9
F750000.0
sg10
F2.748460861917326
sg11
F877611.0
sg12
F0.0
sg13
F436515.0
sg14
F0.0
sg15
F819288.0
sg16
F0.0
sg17
I00
sg18
F0.0
sg19
F0.0
sg20
F441096.0
sg21
F0.0
ssS'BANNANTINE JAMES M'
p116
(dp117
g3
F477.0
sg4
F566.0
sg5
F0.8215547703180212
sg6
F0.0
sg7
F916197.0
sg8
F0.0
sg9
F0.0
sg10
F0.0
sg11
F5243487.0
sg12
F56301.0
sg13
F4046157.0
sg14
F29.0
sg15
F864523.0
sg16
F0.0
sg17
I00
sg18
F-5104.0
sg19
F465.0
sg20
F1757552.0
sg21
F39.0
ssS'DUNCAN JOHN H'
p118
(dp119
g3
F0.0
sg4
F0.0
sg5
F0.0
sg6
F0.0
sg7
F77492.0
sg8
F0.0
sg9
F0.0
sg10
F0.0
sg11
F371750.0
sg12
F0.0
sg13
F371750.0
sg14
F0.0
sg15
F0.0
sg16
F0.0
sg17
I00
sg18
F-25000.0
sg19
F0.0
sg20
F0.0
sg21
F0.0
ssS'SHAPIRO RICHARD S'
p120
(dp121
g3
F269076.0
sg4
F15149.0
sg5
F0.29883160604660375
sg6
F0.0
sg7
F1057548.0
sg8
F0.0
sg9
F650000.0
sg10
F2.4156743819590005
sg11
F987001.0
sg12
F137767.0
sg13
F607837.0
sg14
F1215.0
sg15
F705.0
sg16
F65.0
sg17
I00
sg18
F0.0
sg19
F4527.0
sg20
F379164.0
sg21
F74.0
ssS'SHERRIFF JOHN R'
p122
(dp123
g3
F428780.0
sg4
F3187.0
sg5
F0.6598682146219015
sg6
F0.1278829022915596
sg7
F4335388.0
sg8
F554422.0
sg9
F1500000.0
sg10
F3.4982974952189934
sg11
F3128982.0
sg12
F0.0
sg13
F1835558.0
sg14
F92.0
sg15
F1852186.0
sg16
F23.0
sg17
I00
sg18
F0.0
sg19
F2103.0
sg20
F1293424.0
sg21
F28.0
ssS'SHELBY REX'
p124
(dp125
g3
F211844.0
sg4
F225.0
sg5
F0.40444444444444444
sg6
F0.0
sg7
F2003885.0
sg8
F0.0
sg9
F200000.0
sg10
F0.9440909348388437
sg11
F2493616.0
sg12
F22884.0
sg13
F1624396.0
sg14
F39.0
sg15
F1573324.0
sg16
F14.0
sg17
I01
sg18
F-4167.0
sg19
F91.0
sg20
F869220.0
sg21
F13.0
ssS'LEMAISTRE CHARLES'
p126
(dp127
g3
F0.0
sg4
F0.0
sg5
F0.0
sg6
F0.0
sg7
F87492.0
sg8
F0.0
sg9
F0.0
sg10
F0.0
sg11
F412878.0
sg12
F0.0
sg13
F412878.0
sg14
F0.0
sg15
F0.0
sg16
F0.0
sg17
I00
sg18
F-25000.0
sg19
F0.0
sg20
F0.0
sg21
F0.0
ssS'DEFFNER JOSEPH M'
p128
(dp129
g3
F206121.0
sg4
F714.0
sg5
F0.773109243697479
sg6
F0.2774577234581752
sg7
F1208649.0
sg8
F335349.0
sg9
F600000.0
sg10
F2.910911551952494
sg11
F159211.0
sg12
F41626.0
sg13
F17378.0
sg14
F74.0
sg15
F25553.0
sg16
F4.0
sg17
I00
sg18
F0.0
sg19
F552.0
sg20
F141833.0
sg21
F115.0
ssS'KISHKILL JOSEPH G'
p130
(dp131
g3
F174246.0
sg4
F0.0
sg5
F0.0
sg6
F0.0
sg7
F704896.0
sg8
F0.0
sg9
F0.0
sg10
F0.0
sg11
F1034346.0
sg12
F116335.0
sg13
F0.0
sg14
F0.0
sg15
F465357.0
sg16
F0.0
sg17
I00
sg18
F-51042.0
sg19
F0.0
sg20
F1034346.0
sg21
F0.0
ssS'WHALLEY LAWRENCE G'
p132
(dp133
g3
F510364.0
sg4
F6019.0
sg5
F0.6512709752450573
sg6
F0.17281308644181792
sg7
F4677574.0
sg8
F808346.0
sg9
F3000000.0
sg10
F5.878157550297435
sg11
F6079137.0
sg12
F57838.0
sg13
F3282960.0
sg14
F556.0
sg15
F301026.0
sg16
F24.0
sg17
I00
sg18
F0.0
sg19
F3920.0
sg20
F2796177.0
sg21
F186.0
ssS'PIRO JIM'
p134
(dp135
g3
F0.0
sg4
F58.0
sg5
F0.05172413793103448
sg6
F0.0
sg7
F0.0
sg8
F0.0
sg9
F0.0
sg10
F0.0
sg11
F47304.0
sg12
F0.0
sg13
F0.0
sg14
F16.0
sg15
F0.0
sg16
F1.0
sg17
I00
sg18
F0.0
sg19
F3.0
sg20
F47304.0
sg21
F0.0
ssS'MCCONNELL MICHAEL S'
p136
(dp137
g3
F365038.0
sg4
F3329.0
sg5
F0.657554821267648
sg6
F0.26383910640898006
sg7
F2101364.0
sg8
F554422.0
sg9
F1100000.0
sg10
F3.013384907872605
sg11
F3101279.0
sg12
F81364.0
sg13
F1623010.0
sg14
F2742.0
sg15
F540.0
sg16
F194.0
sg17
I00
sg18
F0.0
sg19
F2189.0
sg20
F1478269.0
sg21
F92.0
ssS'DELAINEY DAVID W'
p138
(dp139
g3
F365163.0
sg4
F3093.0
sg5
F0.6779825412221144
sg6
F0.27274362418199405
sg7
F4747979.0
sg8
F1294981.0
sg9
F3000000.0
sg10
F8.215509238340138
sg11
F3614261.0
sg12
F86174.0
sg13
F2291113.0
sg14
F3069.0
sg15
F1661.0
sg16
F609.0
sg17
I01
sg18
F0.0
sg19
F2097.0
sg20
F1323148.0
sg21
F66.0
ssS'SULLIVAN-SHAKLOVITZ COLLEEN'
p140
(dp141
g3
F162779.0
sg4
F0.0
sg5
F0.0
sg6
F0.5547792778549386
sg7
F999356.0
sg8
F554422.0
sg9
F100000.0
sg10
F0.6143298582741017
sg11
F1362375.0
sg12
F0.0
sg13
F1362375.0
sg14
F0.0
sg15
F162.0
sg16
F0.0
sg17
I00
sg18
F0.0
sg19
F0.0
sg20
F0.0
sg21
F0.0
ssS'WROBEL BRUCE'
p142
(dp143
g3
F0.0
sg4
F0.0
sg5
F0.0
sg6
F0.0
sg7
F0.0
sg8
F0.0
sg9
F0.0
sg10
F0.0
sg11
F139130.0
sg12
F0.0
sg13
F139130.0
sg14
F0.0
sg15
F0.0
sg16
F0.0
sg17
I00
sg18
F0.0
sg19
F0.0
sg20
F0.0
sg21
F0.0
ssS'LINDHOLM TOD A'
p144
(dp145
g3
F236457.0
sg4
F0.0
sg5
F0.0
sg6
F0.19979700624165847
sg7
F875889.0
sg8
F175000.0
sg9
F200000.0
sg10
F0.8458197473536415
sg11
F3064208.0
sg12
F57727.0
sg13
F2549361.0
sg14
F0.0
sg15
F2630.0
sg16
F0.0
sg17
I00
sg18
F0.0
sg19
F0.0
sg20
F514847.0
sg21
F0.0
ssS'MEYER JEROME J'
p146
(dp147
g3
F0.0
sg4
F0.0
sg5
F0.0
sg6
F0.0
sg7
F2151.0
sg8
F0.0
sg9
F0.0
sg10
F0.0
sg11
F0.0
sg12
F2151.0
sg13
F0.0
sg14
F0.0
sg15
F0.0
sg16
F0.0
sg17
I00
sg18
F-38346.0
sg19
F0.0
sg20
F0.0
sg21
F0.0
ssS'LAY KENNETH L'
p148
(dp149
g3
F1072321.0
sg4
F4273.0
sg5
F0.5642405803884858
sg6
F0.03476252603170035
sg7
F103559793.0
sg8
F3600000.0
sg9
F7000000.0
sg10
F6.527896031132468
sg11
F49110078.0
sg12
F99832.0
sg13
F34348384.0
sg14
F36.0
sg15
F10359729.0
sg16
F16.0
sg17
I01
sg18
F-300000.0
sg19
F2411.0
sg20
F14761694.0
sg21
F123.0
ssS'BUTTS ROBERT H'
p150
(dp151
g3
F261516.0
sg4
F0.0
sg5
F0.0
sg6
F0.13762384179706855
sg7
F1271582.0
sg8
F175000.0
sg9
F750000.0
sg10
F2.8678933602532926
sg11
F417619.0
sg12
F9410.0
sg13
F0.0
sg14
F0.0
sg15
F150656.0
sg16
F0.0
sg17
I00
sg18
F-75000.0
sg19
F0.0
sg20
F417619.0
sg21
F0.0
ssS'OLSON CINDY K'
p152
(dp153
g3
F329078.0
sg4
F1184.0
sg5
F0.722972972972973
sg6
F0.07566832153285859
sg7
F1321557.0
sg8
F100000.0
sg9
F750000.0
sg10
F2.279094925823057
sg11
F2606763.0
sg12
F63791.0
sg13
F1637034.0
sg14
F52.0
sg15
F972.0
sg16
F15.0
sg17
I00
sg18
F0.0
sg19
F856.0
sg20
F969729.0
sg21
F20.0
ssS'MCDONALD REBECCA'
p154
(dp155
g3
F0.0
sg4
F894.0
sg5
F0.8053691275167785
sg6
F0.0
sg7
F0.0
sg8
F0.0
sg9
F0.0
sg10
F0.0
sg11
F1691366.0
sg12
F0.0
sg13
F757301.0
sg14
F13.0
sg15
F0.0
sg16
F1.0
sg17
I00
sg18
F0.0
sg19
F720.0
sg20
F934065.0
sg21
F54.0
ssS'CUMBERLAND MICHAEL S'
p156
(dp157
g3
F184899.0
sg4
F0.0
sg5
F0.0
sg6
F0.3403650693849665
sg7
F807956.0
sg8
F275000.0
sg9
F325000.0
sg10
F1.7577163748857485
sg11
F207940.0
sg12
F22344.0
sg13
F0.0
sg14
F0.0
sg15
F713.0
sg16
F0.0
sg17
I00
sg18
F0.0
sg19
F0.0
sg20
F207940.0
sg21
F0.0
ssS'GAHN ROBERT S'
p158
(dp159
g3
F192008.0
sg4
F0.0
sg5
F0.0
sg6
F0.0
sg7
F900585.0
sg8
F0.0
sg9
F509870.0
sg10
F2.6554622724053165
sg11
F318607.0
sg12
F50080.0
sg13
F83237.0
sg14
F0.0
sg15
F76547.0
sg16
F0.0
sg17
I00
sg18
F-1042.0
sg19
F0.0
sg20
F235370.0
sg21
F0.0
ssS'BADUM JAMES P'
p160
(dp161
g3
F0.0
sg4
F0.0
sg5
F0.0
sg6
F0.0
sg7
F182466.0
sg8
F0.0
sg9
F0.0
sg10
F0.0
sg11
F257817.0
sg12
F3486.0
sg13
F257817.0
sg14
F0.0
sg15
F0.0
sg16
F0.0
sg17
I00
sg18
F0.0
sg19
F0.0
sg20
F0.0
sg21
F0.0
ssS'HERMANN ROBERT J'
p162
(dp163
g3
F262663.0
sg4
F0.0
sg5
F0.0
sg6
F0.11561041141121005
sg7
F1297461.0
sg8
F150000.0
sg9
F700000.0
sg10
F2.665011821231007
sg11
F668132.0
sg12
F48357.0
sg13
F187500.0
sg14
F0.0
sg15
F416441.0
sg16
F0.0
sg17
I00
sg18
F-280000.0
sg19
F0.0
sg20
F480632.0
sg21
F0.0
ssS'FALLON JAMES B'
p164
(dp165
g3
F304588.0
sg4
F1755.0
sg5
F0.913960113960114
sg6
F0.10182600085955053
sg7
F3676340.0
sg8
F374347.0
sg9
F2500000.0
sg10
F8.207808580771403
sg11
F2332399.0
sg12
F95924.0
sg13
F940257.0
sg14
F75.0
sg15
F401481.0
sg16
F37.0
sg17
I00
sg18
F0.0
sg19
F1604.0
sg20
F1392142.0
sg21
F42.0
ssS'GATHMANN WILLIAM D'
p166
(dp167
g3
F0.0
sg4
F0.0
sg5
F0.0
sg6
F0.0
sg7
F0.0
sg8
F0.0
sg9
F0.0
sg10
F0.0
sg11
F1945360.0
sg12
F0.0
sg13
F1753766.0
sg14
F0.0
sg15
F0.0
sg16
F0.0
sg17
I00
sg18
F0.0
sg19
F0.0
sg20
F264013.0
sg21
F0.0
ssS'HORTON STANLEY C'
p168
(dp169
g3
F0.0
sg4
F2350.0
sg5
F0.4570212765957447
sg6
F0.0
sg7
F3131860.0
sg8
F0.0
sg9
F0.0
sg10
F0.0
sg11
F7256648.0
sg12
F0.0
sg13
F5210569.0
sg14
F1073.0
sg15
F0.0
sg16
F15.0
sg17
I00
sg18
F0.0
sg19
F1074.0
sg20
F2046079.0
sg21
F44.0
ssS'BOWEN JR RAYMOND M'
p170
(dp171
g3
F278601.0
sg4
F1858.0
sg5
F0.8573735199138859
sg6
F0.36495992454269177
sg7
F2669589.0
sg8
F974293.0
sg9
F1350000.0
sg10
F4.845639462887786
sg11
F252055.0
sg12
F65907.0
sg13
F0.0
sg14
F27.0
sg15
F1621.0
sg16
F15.0
sg17
I01
sg18
F-833.0
sg19
F1593.0
sg20
F252055.0
sg21
F140.0
ssS'GILLIS JOHN'
p172
(dp173
g3
F0.0
sg4
F0.0
sg5
F0.0
sg6
F0.0
sg7
F0.0
sg8
F0.0
sg9
F0.0
sg10
F0.0
sg11
F85641.0
sg12
F0.0
sg13
F9803.0
sg14
F0.0
sg15
F0.0
sg16
F0.0
sg17
I00
sg18
F0.0
sg19
F0.0
sg20
F75838.0
sg21
F0.0
ssS'FITZGERALD JAY L'
p174
(dp175
g3
F199157.0
sg4
F936.0
sg5
F0.7724358974358975
sg6
F0.3932665986739296
sg7
F1414857.0
sg8
F556416.0
sg9
F350000.0
sg10
F1.7574074724965731
sg11
F1621236.0
sg12
F23870.0
sg13
F664461.0
sg14
F16.0
sg15
F285414.0
sg16
F8.0
sg17
I00
sg18
F0.0
sg19
F723.0
sg20
F956775.0
sg21
F1.0
ssS'MORAN MICHAEL P'
p176
(dp177
g3
F0.0
sg4
F672.0
sg5
F0.18898809523809523
sg6
F0.0
sg7
F0.0
sg8
F0.0
sg9
F0.0
sg10
F0.0
sg11
F221141.0
sg12
F0.0
sg13
F59539.0
sg14
F19.0
sg15
F0.0
sg16
F0.0
sg17
I00
sg18
F0.0
sg19
F127.0
sg20
F161602.0
sg21
F0.0
ssS'REDMOND BRIAN L'
p178
(dp179
g3
F96840.0
sg4
F1671.0
sg5
F0.6361460203470976
sg6
F0.0
sg7
F111529.0
sg8
F0.0
sg9
F0.0
sg10
F0.0
sg11
F7890324.0
sg12
F14689.0
sg13
F7509039.0
sg14
F221.0
sg15
F0.0
sg16
F49.0
sg17
I00
sg18
F0.0
sg19
F1063.0
sg20
F381285.0
sg21
F204.0
ssS'BAZELIDES PHILIP J'
p180
(dp181
g3
F80818.0
sg4
F0.0
sg5
F0.0
sg6
F0.10899439158458663
sg7
F860136.0
sg8
F93750.0
sg9
F0.0
sg10
F0.0
sg11
F1599641.0
sg12
F0.0
sg13
F1599641.0
sg14
F0.0
sg15
F874.0
sg16
F0.0
sg17
I00
sg18
F0.0
sg19
F0.0
sg20
F0.0
sg21
F0.0
ssS'BELDEN TIMOTHY N'
p182
(dp183
g3
F213999.0
sg4
F7991.0
sg5
F0.6909022650481792
sg6
F0.0
sg7
F5501630.0
sg8
F0.0
sg9
F5249999.0
sg10
F24.532820246823583
sg11
F1110705.0
sg12
F17355.0
sg13
F953136.0
sg14
F484.0
sg15
F210698.0
sg16
F108.0
sg17
I01
sg18
F-2334434.0
sg19
F5521.0
sg20
F157569.0
sg21
F228.0
ssS'DIMICHELE RICHARD G'
p184
(dp185
g3
F262788.0
sg4
F0.0
sg5
F0.0
sg6
F0.2934196341365057
sg7
F2368151.0
sg8
F694862.0
sg9
F1000000.0
sg10
F3.8053487982708494
sg11
F8317782.0
sg12
F35812.0
sg13
F8191755.0
sg14
F0.0
sg15
F374689.0
sg16
F0.0
sg17
I00
sg18
F0.0
sg19
F0.0
sg20
F126027.0
sg21
F0.0
ssS'DURAN WILLIAM D'
p186
(dp187
g3
F210692.0
sg4
F904.0
sg5
F0.6626106194690266
sg6
F0.5279881218939044
sg7
F2093263.0
sg8
F1105218.0
sg9
F750000.0
sg10
F3.559698517266911
sg11
F1640910.0
sg12
F25785.0
sg13
F1451869.0
sg14
F12.0
sg15
F1568.0
sg16
F3.0
sg17
I00
sg18
F0.0
sg19
F599.0
sg20
F189041.0
sg21
F106.0
ssS'THORN TERENCE H'
p188
(dp189
g3
F222093.0
sg4
F266.0
sg5
F0.2744360902255639
sg6
F0.21942985540669677
sg7
F911453.0
sg8
F200000.0
sg9
F0.0
sg10
F0.0
sg11
F4817796.0
sg12
F46145.0
sg13
F4452476.0
sg14
F41.0
sg15
F426629.0
sg16
F0.0
sg17
I00
sg18
F0.0
sg19
F73.0
sg20
F365320.0
sg21
F0.0
ssS'FASTOW ANDREW S'
p190
(dp191
g3
F440698.0
sg4
F0.0
sg5
F0.0
sg6
F0.7161697846154608
sg7
F2424083.0
sg8
F1736055.0
sg9
F1300000.0
sg10
F2.949865894558178
sg11
F1794412.0
sg12
F55921.0
sg13
F0.0
sg14
F0.0
sg15
F277464.0
sg16
F0.0
sg17
I01
sg18
F-1386055.0
sg19
F0.0
sg20
F1794412.0
sg21
F0.0
ssS'FOY JOE'
p192
(dp193
g3
F0.0
sg4
F57.0
sg5
F0.03508771929824561
sg6
F0.0
sg7
F181755.0
sg8
F0.0
sg9
F0.0
sg10
F0.0
sg11
F343434.0
sg12
F0.0
sg13
F343434.0
sg14
F13.0
sg15
F0.0
sg16
F0.0
sg17
I00
sg18
F0.0
sg19
F2.0
sg20
F0.0
sg21
F0.0
ssS'CALGER CHRISTOPHER F'
p194
(dp195
g3
F240189.0
sg4
F2598.0
sg5
F0.8421862971516552
sg6
F0.22894204039902472
sg7
F1639297.0
sg8
F375304.0
sg9
F1250000.0
sg10
F5.204234998272194
sg11
F126027.0
sg12
F35818.0
sg13
F0.0
sg14
F144.0
sg15
F486.0
sg16
F25.0
sg17
I01
sg18
F-262500.0
sg19
F2188.0
sg20
F126027.0
sg21
F199.0
ssS'RICE KENNETH D'
p196
(dp197
g3
F420636.0
sg4
F905.0
sg5
F0.9546961325966851
sg6
F3.2016849816849815
sg7
F505050.0
sg8
F1617011.0
sg9
F1750000.0
sg10
F4.160366682832663
sg11
F22542539.0
sg12
F46950.0
sg13
F19794175.0
sg14
F18.0
sg15
F174839.0
sg16
F4.0
sg17
I01
sg18
F-3504386.0
sg19
F864.0
sg20
F2748364.0
sg21
F42.0
ssS'KAMINSKI WINCENTY J'
p198
(dp199
g3
F275101.0
sg4
F4607.0
sg5
F0.1265465595832429
sg6
F0.29762582798823356
sg7
F1086821.0
sg8
F323466.0
sg9
F400000.0
sg10
F1.4540114357999425
sg11
F976037.0
sg12
F83585.0
sg13
F850010.0
sg14
F14368.0
sg15
F4669.0
sg16
F171.0
sg17
I00
sg18
F0.0
sg19
F583.0
sg20
F126027.0
sg21
F41.0
ssS'LOCKHART EUGENE E'
p200
(dp201
g3
F0.0
sg4
F0.0
sg5
F0.0
sg6
F0.0
sg7
F0.0
sg8
F0.0
sg9
F0.0
sg10
F0.0
sg11
F0.0
sg12
F0.0
sg13
F0.0
sg14
F0.0
sg15
F0.0
sg16
F0.0
sg17
I00
sg18
F0.0
sg19
F0.0
sg20
F0.0
sg21
F0.0
ssS'COX DAVID'
p202
(dp203
g3
F314288.0
sg4
F102.0
sg5
F0.696078431372549
sg6
F0.0
sg7
F1101393.0
sg8
F0.0
sg9
F800000.0
sg10
F2.5454360331924857
sg11
F495633.0
sg12
F27861.0
sg13
F117551.0
sg14
F33.0
sg15
F494.0
sg16
F4.0
sg17
I00
sg18
F-41250.0
sg19
F71.0
sg20
F378082.0
sg21
F0.0
ssS'OVERDYKE JR JERE C'
p204
(dp205
g3
F94941.0
sg4
F0.0
sg5
F0.0
sg6
F0.5438073238399116
sg7
F249787.0
sg8
F135836.0
sg9
F0.0
sg10
F0.0
sg11
F7307594.0
sg12
F18834.0
sg13
F5266578.0
sg14
F0.0
sg15
F176.0
sg16
F0.0
sg17
I00
sg18
F0.0
sg19
F0.0
sg20
F2041016.0
sg21
F0.0
ssS'PEREIRA PAULO V. FERRAZ'
p206
(dp207
g3
F0.0
sg4
F0.0
sg5
F0.0
sg6
F0.0
sg7
F27942.0
sg8
F0.0
sg9
F0.0
sg10
F0.0
sg11
F0.0
sg12
F27942.0
sg13
F0.0
sg14
F0.0
sg15
F0.0
sg16
F0.0
sg17
I00
sg18
F-101250.0
sg19
F0.0
sg20
F0.0
sg21
F0.0
ssS'STABLER FRANK'
p208
(dp209
g3
F239502.0
sg4
F0.0
sg5
F0.0
sg6
F0.0
sg7
F1112087.0
sg8
F0.0
sg9
F500000.0
sg10
F2.0876652387036434
sg11
F511734.0
sg12
F16514.0
sg13
F0.0
sg14
F0.0
sg15
F356071.0
sg16
F0.0
sg17
I00
sg18
F0.0
sg19
F0.0
sg20
F511734.0
sg21
F0.0
ssS'SKILLING JEFFREY K'
p210
(dp211
g3
F1111258.0
sg4
F3627.0
sg5
F0.5629997242900469
sg6
F0.22112896471564888
sg7
F8682716.0
sg8
F1920000.0
sg9
F5600000.0
sg10
F5.03933380007163
sg11
F26093672.0
sg12
F29336.0
sg13
F19250000.0
sg14
F108.0
sg15
F22122.0
sg16
F30.0
sg17
I01
sg18
F0.0
sg19
F2042.0
sg20
F6843672.0
sg21
F88.0
ssS'BLAKE JR. NORMAN P'
p212
(dp213
g3
F0.0
sg4
F0.0
sg5
F0.0
sg6
F0.0
sg7
F1279.0
sg8
F0.0
sg9
F0.0
sg10
F0.0
sg11
F0.0
sg12
F1279.0
sg13
F0.0
sg14
F0.0
sg15
F0.0
sg16
F0.0
sg17
I00
sg18
F-113784.0
sg19
F0.0
sg20
F0.0
sg21
F0.0
ssS'SHERRICK JEFFREY B'
p214
(dp215
g3
F0.0
sg4
F613.0
sg5
F0.9510603588907015
sg6
F0.0
sg7
F0.0
sg8
F0.0
sg9
F0.0
sg10
F0.0
sg11
F1832468.0
sg12
F0.0
sg13
F1426469.0
sg14
F25.0
sg15
F0.0
sg16
F18.0
sg17
I00
sg18
F0.0
sg19
F583.0
sg20
F405999.0
sg21
F39.0
ssS'PRENTICE JAMES'
p216
(dp217
g3
F0.0
sg4
F0.0
sg5
F0.0
sg6
F0.0
sg7
F564348.0
sg8
F0.0
sg9
F0.0
sg10
F0.0
sg11
F1095040.0
sg12
F0.0
sg13
F886231.0
sg14
F0.0
sg15
F0.0
sg16
F0.0
sg17
I00
sg18
F0.0
sg19
F0.0
sg20
F208809.0
sg21
F0.0
ssS'GRAY RODNEY'
p218
(dp219
g3
F6615.0
sg4
F0.0
sg5
F0.0
sg6
F0.3188614216270239
sg7
F1146658.0
sg8
F365625.0
sg9
F0.0
sg10
F0.0
sg11
F0.0
sg12
F0.0
sg13
F0.0
sg14
F0.0
sg15
F680833.0
sg16
F0.0
sg17
I00
sg18
F0.0
sg19
F0.0
sg20
F0.0
sg21
F0.0
ssS'UMANOFF ADAM S'
p220
(dp221
g3
F288589.0
sg4
F111.0
sg5
F0.36936936936936937
sg6
F0.0
sg7
F1130461.0
sg8
F0.0
sg9
F788750.0
sg10
F2.7331256562100426
sg11
F0.0
sg12
F53122.0
sg13
F0.0
sg14
F18.0
sg15
F0.0
sg16
F0.0
sg17
I00
sg18
F0.0
sg19
F41.0
sg20
F0.0
sg21
F12.0
ssS'KEAN STEVEN J'
p222
(dp223
g3
F404338.0
sg4
F12754.0
sg5
F0.2853222518425592
sg6
F0.1716716584970032
sg7
F1747522.0
sg8
F300000.0
sg9
F1000000.0
sg10
F2.473178380463869
sg11
F6153642.0
sg12
F41953.0
sg13
F2022048.0
sg14
F6759.0
sg15
F1231.0
sg16
F387.0
sg17
I00
sg18
F0.0
sg19
F3639.0
sg20
F4131594.0
sg21
F140.0
ssS'FOWLER PEGGY'
p224
(dp225
g3
F0.0
sg4
F517.0
sg5
F0.019342359767891684
sg6
F0.0
sg7
F0.0
sg8
F0.0
sg9
F0.0
sg10
F0.0
sg11
F1884748.0
sg12
F0.0
sg13
F1324578.0
sg14
F36.0
sg15
F0.0
sg16
F0.0
sg17
I00
sg18
F0.0
sg19
F10.0
sg20
F560170.0
sg21
F0.0
ssS'WASAFF GEORGE'
p226
(dp227
g3
F259996.0
sg4
F400.0
sg5
F0.8425
sg6
F0.1933497358359234
sg7
F1034395.0
sg8
F200000.0
sg9
F325000.0
sg10
F1.2500192310650933
sg11
F2056427.0
sg12
F0.0
sg13
F1668260.0
sg14
F30.0
sg15
F1425.0
sg16
F7.0
sg17
I00
sg18
F-583325.0
sg19
F337.0
sg20
F388167.0
sg21
F22.0
ssS'WHITE JR THOMAS E'
p228
(dp229
g3
F317543.0
sg4
F0.0
sg5
F0.0
sg6
F0.0
sg7
F1934359.0
sg8
F0.0
sg9
F450000.0
sg10
F1.417130908254945
sg11
F15144123.0
sg12
F81353.0
sg13
F1297049.0
sg14
F0.0
sg15
F1085463.0
sg16
F0.0
sg17
I00
sg18
F0.0
sg19
F0.0
sg20
F13847074.0
sg21
F0.0
ssS'CHRISTODOULOU DIOMEDES'
p230
(dp231
g3
F0.0
sg4
F0.0
sg5
F0.0
sg6
F0.0
sg7
F0.0
sg8
F0.0
sg9
F0.0
sg10
F0.0
sg11
F6077885.0
sg12
F0.0
sg13
F5127155.0
sg14
F0.0
sg15
F0.0
sg16
F0.0
sg17
I00
sg18
F0.0
sg19
F0.0
sg20
F950730.0
sg21
F0.0
ssS'ALLEN PHILLIP K'
p232
(dp233
g3
F201955.0
sg4
F2902.0
sg5
F0.4848380427291523
sg6
F0.06796943744617502
sg7
F4484442.0
sg8
F304805.0
sg9
F4175000.0
sg10
F20.672922185635414
sg11
F1729541.0
sg12
F13868.0
sg13
F1729541.0
sg14
F2195.0
sg15
F152.0
sg16
F65.0
sg17
I00
sg18
F-3081055.0
sg19
F1407.0
sg20
F126027.0
sg21
F47.0
ssS'SHARP VICTORIA T'
p234
(dp235
g3
F248146.0
sg4
F3136.0
sg5
F0.7898596938775511
sg6
F0.2677799266862077
sg7
F1576511.0
sg8
F422158.0
sg9
F600000.0
sg10
F2.417931379107461
sg11
F494136.0
sg12
F116337.0
sg13
F281073.0
sg14
F136.0
sg15
F2401.0
sg16
F6.0
sg17
I00
sg18
F0.0
sg19
F2477.0
sg20
F213063.0
sg21
F24.0
ssS'JAEDICKE ROBERT'
p236
(dp237
g3
F0.0
sg4
F0.0
sg5
F0.0
sg6
F0.0
sg7
F83750.0
sg8
F0.0
sg9
F0.0
sg10
F0.0
sg11
F431750.0
sg12
F0.0
sg13
F431750.0
sg14
F0.0
sg15
F0.0
sg16
F0.0
sg17
I00
sg18
F-25000.0
sg19
F0.0
sg20
F44093.0
sg21
F0.0
ssS'WINOKUR JR. HERBERT S'
p238
(dp239
g3
F0.0
sg4
F0.0
sg5
F0.0
sg6
F0.0
sg7
F84992.0
sg8
F0.0
sg9
F0.0
sg10
F0.0
sg11
F0.0
sg12
F1413.0
sg13
F0.0
sg14
F0.0
sg15
F0.0
sg16
F0.0
sg17
I00
sg18
F-25000.0
sg19
F0.0
sg20
F0.0
sg21
F0.0
ssS'BROWN MICHAEL'
p240
(dp241
g3
F0.0
sg4
F1486.0
sg5
F0.5121130551816958
sg6
F0.0
sg7
F49288.0
sg8
F0.0
sg9
F0.0
sg10
F0.0
sg11
F0.0
sg12
F49288.0
sg13
F0.0
sg14
F41.0
sg15
F0.0
sg16
F1.0
sg17
I00
sg18
F0.0
sg19
F761.0
sg20
F0.0
sg21
F13.0
ssS'MCCLELLAN GEORGE'
p242
(dp243
g3
F263413.0
sg4
F1744.0
sg5
F0.8423165137614679
sg6
F0.0
sg7
F1318763.0
sg8
F0.0
sg9
F900000.0
sg10
F3.4166878627858153
sg11
F947861.0
sg12
F228763.0
sg13
F506765.0
sg14
F49.0
sg15
F51587.0
sg16
F0.0
sg17
I00
sg18
F-125000.0
sg19
F1469.0
sg20
F441096.0
sg21
F52.0
ssS'HUGHES JAMES A'
p244
(dp245
g3
F0.0
sg4
F719.0
sg5
F0.8191933240611962
sg6
F0.0
sg7
F0.0
sg8
F0.0
sg9
F0.0
sg10
F0.0
sg11
F1118394.0
sg12
F0.0
sg13
F754966.0
sg14
F34.0
sg15
F0.0
sg16
F5.0
sg17
I00
sg18
F0.0
sg19
F589.0
sg20
F363428.0
sg21
F35.0
ssS'REYNOLDS LAWRENCE'
p246
(dp247
g3
F76399.0
sg4
F0.0
sg5
F0.0
sg6
F0.39609607706445277
sg7
F394475.0
sg8
F156250.0
sg9
F100000.0
sg10
F1.3089176559902616
sg11
F4221891.0
sg12
F8409.0
sg13
F4160672.0
sg14
F0.0
sg15
F202052.0
sg16
F0.0
sg17
I00
sg18
F-200000.0
sg19
F0.0
sg20
F201483.0
sg21
F0.0
ssS'PICKERING MARK R'
p248
(dp249
g3
F655037.0
sg4
F898.0
sg5
F0.8106904231625836
sg6
F0.0
sg7
F1386690.0
sg8
F0.0
sg9
F300000.0
sg10
F0.45798939601885086
sg11
F28798.0
sg12
F31653.0
sg13
F28798.0
sg14
F67.0
sg15
F0.0
sg16
F0.0
sg17
I00
sg18
F0.0
sg19
F728.0
sg20
F0.0
sg21
F7.0
ssS'BHATNAGAR SANJAY'
p250
(dp251
g3
F0.0
sg4
F523.0
sg5
F0.8852772466539197
sg6
F0.0
sg7
F15456290.0
sg8
F0.0
sg9
F0.0
sg10
F0.0
sg11
F0.0
sg12
F0.0
sg13
F2604490.0
sg14
F29.0
sg15
F137864.0
sg16
F1.0
sg17
I00
sg18
F0.0
sg19
F463.0
sg20
F-2604490.0
sg21
F0.0
ssS'CARTER REBECCA C'
p252
(dp253
g3
F261809.0
sg4
F312.0
sg5
F0.6282051282051282
sg6
F0.1570493155790827
sg7
F477557.0
sg8
F75000.0
sg9
F300000.0
sg10
F1.14587351848103
sg11
F0.0
sg12
F0.0
sg13
F0.0
sg14
F15.0
sg15
F540.0
sg16
F7.0
sg17
I00
sg18
F-159792.0
sg19
F196.0
sg20
F307301.0
sg21
F29.0
ssS'BUCHANAN HAROLD G'
p254
(dp255
g3
F248017.0
sg4
F1088.0
sg5
F0.021139705882352942
sg6
F0.2890141347212358
sg7
F1054637.0
sg8
F304805.0
sg9
F500000.0
sg10
F2.015990839337626
sg11
F1014505.0
sg12
F600.0
sg13
F825464.0
sg14
F125.0
sg15
F1215.0
sg16
F0.0
sg17
I00
sg18
F0.0
sg19
F23.0
sg20
F189041.0
sg21
F0.0
ssS'YEAP SOON'
p256
(dp257
g3
F0.0
sg4
F0.0
sg5
F0.0
sg6
F0.0
sg7
F55097.0
sg8
F0.0
sg9
F0.0
sg10
F0.0
sg11
F192758.0
sg12
F55097.0
sg13
F192758.0
sg14
F0.0
sg15
F0.0
sg16
F0.0
sg17
I00
sg18
F0.0
sg19
F0.0
sg20
F0.0
sg21
F0.0
ssS'MURRAY JULIA H'
p258
(dp259
g3
F229284.0
sg4
F2192.0
sg5
F0.1802007299270073
sg6
F0.15390411650418495
sg7
F812194.0
sg8
F125000.0
sg9
F400000.0
sg10
F1.744561330053558
sg11
F597461.0
sg12
F57580.0
sg13
F400478.0
sg14
F45.0
sg15
F330.0
sg16
F2.0
sg17
I00
sg18
F0.0
sg19
F395.0
sg20
F196983.0
sg21
F11.0
ssS'GARLAND C KEVIN'
p260
(dp261
g3
F231946.0
sg4
F209.0
sg5
F0.8516746411483254
sg6
F0.23958597329407733
sg7
F1566469.0
sg8
F375304.0
sg9
F850000.0
sg10
F3.6646460814155017
sg11
F896153.0
sg12
F48405.0
sg13
F636246.0
sg14
F44.0
sg15
F60814.0
sg16
F27.0
sg17
I00
sg18
F0.0
sg19
F178.0
sg20
F259907.0
sg21
F10.0
ssS'DODSON KEITH'
p262
(dp263
g3
F221003.0
sg4
F176.0
sg5
F0.6477272727272727
sg6
F0.0
sg7
F319941.0
sg8
F0.0
sg9
F70000.0
sg10
F0.3167377818400655
sg11
F0.0
sg12
F28164.0
sg13
F0.0
sg14
F14.0
sg15
F774.0
sg16
F3.0
sg17
I00
sg18
F0.0
sg19
F114.0
sg20
F0.0
sg21
F10.0
ssS'YEAGER F SCOTT'
p264
(dp265
g3
F158403.0
sg4
F0.0
sg5
F0.0
sg6
F0.0
sg7
F360300.0
sg8
F0.0
sg9
F0.0
sg10
F0.0
sg11
F11884758.0
sg12
F53947.0
sg13
F8308552.0
sg14
F0.0
sg15
F147950.0
sg16
F0.0
sg17
I01
sg18
F0.0
sg19
F0.0
sg20
F3576206.0
sg21
F0.0
ssS'HIRKO JOSEPH'
p266
(dp267
g3
F0.0
sg4
F0.0
sg5
F0.0
sg6
F0.0
sg7
F91093.0
sg8
F0.0
sg9
F0.0
sg10
F0.0
sg11
F30766064.0
sg12
F77978.0
sg13
F30766064.0
sg14
F0.0
sg15
F2856.0
sg16
F0.0
sg17
I01
sg18
F0.0
sg19
F0.0
sg20
F0.0
sg21
F0.0
ssS'DIETRICH JANET R'
p268
(dp269
g3
F250100.0
sg4
F2572.0
sg5
F0.73950233281493
sg6
F0.3944914581300905
sg7
F1410464.0
sg8
F556416.0
sg9
F600000.0
sg10
F2.3990403838464616
sg11
F1865087.0
sg12
F3475.0
sg13
F1550019.0
sg14
F63.0
sg15
F473.0
sg16
F14.0
sg17
I00
sg18
F0.0
sg19
F1902.0
sg20
F315068.0
sg21
F305.0
ssS'DERRICK JR. JAMES V'
p270
(dp271
g3
F492375.0
sg4
F2181.0
sg5
F0.6423658872077029
sg6
F0.8784331946110664
sg7
F550981.0
sg8
F484000.0
sg9
F800000.0
sg10
F1.6247778624016247
sg11
F8831913.0
sg12
F51124.0
sg13
F8831913.0
sg14
F909.0
sg15
F7482.0
sg16
F20.0
sg17
I00
sg18
F-1284000.0
sg19
F1401.0
sg20
F1787380.0
sg21
F64.0
ssS'FREVERT MARK A'
p272
(dp273
g3
F1060932.0
sg4
F3275.0
sg5
F0.909618320610687
sg6
F0.09372602163276922
sg7
F17252530.0
sg8
F1617011.0
sg9
F2000000.0
sg10
F1.885134956811558
sg11
F14622185.0
sg12
F86987.0
sg13
F10433518.0
sg14
F21.0
sg15
F7427621.0
sg16
F6.0
sg17
I00
sg18
F-3367011.0
sg19
F2979.0
sg20
F4188667.0
sg21
F242.0
ssS'PAI LOU L'
p274
(dp275
g3
F261879.0
sg4
F0.0
sg5
F0.0
sg6
F0.0
sg7
F3123383.0
sg8
F0.0
sg9
F1000000.0
sg10
F3.8185574253758414
sg11
F23817930.0
sg12
F32047.0
sg13
F15364167.0
sg14
F0.0
sg15
F1829457.0
sg16
F0.0
sg17
I00
sg18
F0.0
sg19
F0.0
sg20
F8453763.0
sg21
F0.0
ssS'HAYSLETT RODERICK J'
p276
(dp277
g3
F0.0
sg4
F2649.0
sg5
F0.21555303888259722
sg6
F0.0
sg7
F0.0
sg8
F0.0
sg9
F0.0
sg10
F0.0
sg11
F346663.0
sg12
F0.0
sg13
F0.0
sg14
F1061.0
sg15
F0.0
sg16
F38.0
sg17
I00
sg18
F0.0
sg19
F571.0
sg20
F346663.0
sg21
F35.0
ssS'BAY FRANKLIN R'
p278
(dp279
g3
F239671.0
sg4
F0.0
sg5
F0.0
sg6
F0.0
sg7
F827696.0
sg8
F0.0
sg9
F400000.0
sg10
F1.6689545251615756
sg11
F63014.0
sg12
F129142.0
sg13
F0.0
sg14
F0.0
sg15
F69.0
sg16
F0.0
sg17
I00
sg18
F-201641.0
sg19
F0.0
sg20
F145796.0
sg21
F0.0
ssS'MCCARTY DANNY J'
p280
(dp281
g3
F0.0
sg4
F1433.0
sg5
F0.35450104675505933
sg6
F0.0
sg7
F0.0
sg8
F0.0
sg9
F0.0
sg10
F0.0
sg11
F758931.0
sg12
F0.0
sg13
F664375.0
sg14
F215.0
sg15
F0.0
sg16
F2.0
sg17
I00
sg18
F0.0
sg19
F508.0
sg20
F94556.0
sg21
F25.0
ssS'FUGH JOHN L'
p282
(dp283
g3
F0.0
sg4
F0.0
sg5
F0.0
sg6
F0.0
sg7
F50591.0
sg8
F0.0
sg9
F0.0
sg10
F0.0
sg11
F176378.0
sg12
F0.0
sg13
F176378.0
sg14
F0.0
sg15
F0.0
sg16
F0.0
sg17
I00
sg18
F0.0
sg19
F0.0
sg20
F0.0
sg21
F0.0
ssS'SCRIMSHAW MATTHEW'
p284
(dp285
g3
F0.0
sg4
F0.0
sg5
F0.0
sg6
F0.0
sg7
F0.0
sg8
F0.0
sg9
F0.0
sg10
F0.0
sg11
F759557.0
sg12
F0.0
sg13
F759557.0
sg14
F0.0
sg15
F0.0
sg16
F0.0
sg17
I00
sg18
F0.0
sg19
F0.0
sg20
F0.0
sg21
F0.0
ssS'KOENIG MARK E'
p286
(dp287
g3
F309946.0
sg4
F2374.0
sg5
F0.9566133108677338
sg6
F0.18898578259957505
sg7
F1587421.0
sg8
F300000.0
sg9
F700000.0
sg10
F2.2584579249288588
sg11
F1920055.0
sg12
F127017.0
sg13
F671737.0
sg14
F61.0
sg15
F150458.0
sg16
F15.0
sg17
I01
sg18
F0.0
sg19
F2271.0
sg20
F1248318.0
sg21
F53.0
ssS'SAVAGE FRANK'
p288
(dp289
g3
F0.0
sg4
F0.0
sg5
F0.0
sg6
F0.0
sg7
F3750.0
sg8
F0.0
sg9
F0.0
sg10
F0.0
sg11
F0.0
sg12
F0.0
sg13
F0.0
sg14
F0.0
sg15
F0.0
sg16
F0.0
sg17
I00
sg18
F-121284.0
sg19
F0.0
sg20
F0.0
sg21
F0.0
ssS'IZZO LAWRENCE L'
p290
(dp291
g3
F85274.0
sg4
F496.0
sg5
F0.8810483870967742
sg6
F0.15786049274700495
sg7
F1979596.0
sg8
F312500.0
sg9
F0.0
sg10
F0.0
sg11
F5819980.0
sg12
F28093.0
sg13
F2165172.0
sg14
F19.0
sg15
F1553729.0
sg16
F5.0
sg17
I00
sg18
F0.0
sg19
F437.0
sg20
F3654808.0
sg21
F28.0
ssS'TILNEY ELIZABETH A'
p292
(dp293
g3
F247338.0
sg4
F460.0
sg5
F0.8239130434782609
sg6
F0.6885448668354227
sg7
F399393.0
sg8
F275000.0
sg9
F300000.0
sg10
F1.2129151201998885
sg11
F1168042.0
sg12
F0.0
sg13
F591250.0
sg14
F19.0
sg15
F152055.0
sg16
F11.0
sg17
I00
sg18
F-575000.0
sg19
F379.0
sg20
F576792.0
sg21
F10.0
ssS'MARTIN AMANDA K'
p294
(dp295
g3
F349487.0
sg4
F1522.0
sg5
F0.31340341655716164
sg6
F0.6120404671526735
sg7
F8407016.0
sg8
F5145434.0
sg9
F0.0
sg10
F0.0
sg11
F2070306.0
sg12
F8211.0
sg13
F2070306.0
sg14
F230.0
sg15
F2818454.0
sg16
F0.0
sg17
I00
sg18
F0.0
sg19
F477.0
sg20
F0.0
sg21
F8.0
ssS'BUY RICHARD B'
p296
(dp297
g3
F330546.0
sg4
F3523.0
sg5
F0.6622196991200682
sg6
F0.32680788996231275
sg7
F2355702.0
sg8
F769862.0
sg9
F900000.0
sg10
F2.722767784211577
sg11
F3444470.0
sg12
F0.0
sg13
F2542813.0
sg14
F1053.0
sg15
F400572.0
sg16
F71.0
sg17
I00
sg18
F-694862.0
sg19
F2333.0
sg20
F901657.0
sg21
F156.0
ssS'GRAMM WENDY L'
p298
(dp299
g3
F0.0
sg4
F0.0
sg5
F0.0
sg6
F0.0
sg7
F119292.0
sg8
F0.0
sg9
F0.0
sg10
F0.0
sg11
F0.0
sg12
F0.0
sg13
F0.0
sg14
F0.0
sg15
F0.0
sg16
F0.0
sg17
I00
sg18
F0.0
sg19
F0.0
sg20
F0.0
sg21
F0.0
ssS'CAUSEY RICHARD A'
p300
(dp301
g3
F415189.0
sg4
F1892.0
sg5
F0.837737843551797
sg6
F0.18729016812235721
sg7
F1868758.0
sg8
F350000.0
sg9
F1000000.0
sg10
F2.4085416521150607
sg11
F2502063.0
sg12
F30674.0
sg13
F0.0
sg14
F49.0
sg15
F307895.0
sg16
F12.0
sg17
I01
sg18
F-235000.0
sg19
F1585.0
sg20
F2502063.0
sg21
F58.0
ssS'TAYLOR MITCHELL S'
p302
(dp303
g3
F265214.0
sg4
F533.0
sg5
F0.5628517823639775
sg6
F0.0
sg7
F1092663.0
sg8
F0.0
sg9
F600000.0
sg10
F2.2623240100447184
sg11
F3745048.0
sg12
F0.0
sg13
F3181250.0
sg14
F29.0
sg15
F0.0
sg16
F0.0
sg17
I00
sg18
F0.0
sg19
F300.0
sg20
F563798.0
sg21
F0.0
ssS'DONAHUE JR JEFFREY M'
p304
(dp305
g3
F278601.0
sg4
F865.0
sg5
F0.892485549132948
sg6
F0.0
sg7
F875760.0
sg8
F0.0
sg9
F800000.0
sg10
F2.8714900520816506
sg11
F1080988.0
sg12
F96268.0
sg13
F765920.0
sg14
F22.0
sg15
F891.0
sg16
F11.0
sg17
I00
sg18
F-300000.0
sg19
F772.0
sg20
F315068.0
sg21
F188.0
ssS'GLISAN JR BEN F'
p306
(dp307
g3
F274975.0
sg4
F873.0
sg5
F1.0011454753722795
sg6
F0.055823228147174685
sg7
F1272284.0
sg8
F71023.0
sg9
F600000.0
sg10
F2.1820165469588146
sg11
F778546.0
sg12
F125978.0
sg13
F384728.0
sg14
F16.0
sg15
F200308.0
sg16
F6.0
sg17
I01
sg18
F0.0
sg19
F874.0
sg20
F393818.0
sg21
F52.0
ss.