(lp0
S'poi'
p1
aS'bonus'
p2
aS'deferred_income'
p3
aS'exercised_stock_options'
p4
aS'long_term_incentive'
p5
aS'restricted_stock'
p6
aS'salary'
p7
aS'total_stock_value'
p8
aS'bonus_to_salary_ratio'
p9
aS'lti_ratio'
p10
aS'shared_ratio'
p11
a.